	.file	"bench.c"
	.text
.Ltext0:
	.section	.text.bench_timer_start,"ax",@progbits
	.align	2
	.globl	bench_timer_start
	.type	bench_timer_start, @function
bench_timer_start:
.LFB11:
.LM1:
	.cfi_startproc
	add	sp,sp,-16
	.cfi_def_cfa_offset 16
.LM2:
	li	a1,1
	li	a0,0
.LM3:
	sw	ra,12(sp)
	.cfi_offset 1, -4
.LM4:
	call	set_gpio_pin_value
.LVL0:
.LM5:
	lw 	ra,12(sp)	# Non volatile Load offseted
	add	sp,sp,16
.LM6:
	tail	start_timer
.LVL1:
	.cfi_endproc
.LFE11:
	.size	bench_timer_start, .-bench_timer_start
	.section	.text.bench_timer_stop,"ax",@progbits
	.align	2
	.globl	bench_timer_stop
	.type	bench_timer_stop, @function
bench_timer_stop:
.LFB12:
.LM7:
	.cfi_startproc
	add	sp,sp,-16
	.cfi_def_cfa_offset 16
	sw	ra,12(sp)
	.cfi_offset 1, -4
.LM8:
	call	stop_timer
.LVL2:
.LM9:
	lw 	ra,12(sp)	# Non volatile Load offseted
.LM10:
	li	a1,0
	li	a0,0
.LM11:
	add	sp,sp,16
.LM12:
	tail	set_gpio_pin_value
.LVL3:
	.cfi_endproc
.LFE12:
	.size	bench_timer_stop, .-bench_timer_stop
	.section	.text.bench_timer_reset,"ax",@progbits
	.align	2
	.globl	bench_timer_reset
	.type	bench_timer_reset, @function
bench_timer_reset:
.LFB13:
.LM13:
	.cfi_startproc
.LM14:
	tail	reset_timer
.LVL4:
	.cfi_endproc
.LFE13:
	.size	bench_timer_reset, .-bench_timer_reset
	.section	.text.print_result,"ax",@progbits
	.align	2
	.globl	print_result
	.type	print_result, @function
print_result:
.LFB14:
.LM15:
	.cfi_startproc
.LVL5:
	add	sp,sp,-16
	.cfi_def_cfa_offset 16
	sw	s0,8(sp)
	.cfi_offset 8, -8
	mv	s0,a1
.LM16:
	lw	a1,0(a0)
.LVL6:
	lui	a0,%hi(.LC0)
.LVL7:
	add	a0,a0,%lo(.LC0)
.LM17:
	sw	ra,12(sp)
	.cfi_offset 1, -4
.LM18:
	call	printf
.LVL8:
.LM19:
	lw 	a5,4(s0)	# Non volatile Load offseted
	bnez	a5,.L7
.LM20:
	lui	a0,%hi(.LC1)
	add	a0,a0,%lo(.LC1)
	call	printf
.LVL9:
.LM21:
	lui	a0,%hi(.LC3)
	lw 	a1,4(s0)	# Non volatile Load offseted
	add	a0,a0,%lo(.LC3)
	call	printf
.LVL10:
.LM22:
	lw	a1,0(s0)
	beqz	a1,.L12
.L9:
.LM23:
	lui	a0,%hi(.LC4)
.LM24:
	lw 	ra,12(sp)	# Non volatile Load offseted
	lw 	s0,8(sp)	# Non volatile Load offseted
.LVL11:
.LM25:
	add	a0,a0,%lo(.LC4)
.LM26:
	add	sp,sp,16
.LM27:
	tail	printf
.LVL12:
.L7:
.LM28:
	lui	a0,%hi(.LC2)
	add	a0,a0,%lo(.LC2)
	call	printf
.LVL13:
.LM29:
	lui	a0,%hi(.LC3)
	lw 	a1,4(s0)	# Non volatile Load offseted
	add	a0,a0,%lo(.LC3)
	call	printf
.LVL14:
.LM30:
	lw	a1,0(s0)
	bnez	a1,.L9
.L12:
.LM31:
	lw 	ra,12(sp)	# Non volatile Load offseted
	lw 	s0,8(sp)	# Non volatile Load offseted
.LVL15:
.LM32:
	li	a0,10
.LM33:
	add	sp,sp,16
.LM34:
	tail	putchar
.LVL16:
	.cfi_endproc
.LFE14:
	.size	print_result, .-print_result
	.section	.text.print_summary,"ax",@progbits
	.align	2
	.globl	print_summary
	.type	print_summary, @function
print_summary:
.LFB15:
.LM35:
	.cfi_startproc
.LVL17:
	add	sp,sp,-16
	.cfi_def_cfa_offset 16
	sw	s0,8(sp)
	.cfi_offset 8, -8
	mv	s0,a0
.LM36:
	lui	a0,%hi(.LC5)
.LVL18:
	add	a0,a0,%lo(.LC5)
.LM37:
	sw	ra,12(sp)
	.cfi_offset 1, -4
.LM38:
	call	printf
.LVL19:
.LM39:
	beqz	s0,.L16
.LM40:
	lui	a0,%hi(.LC7)
.LM41:
	lw 	ra,12(sp)	# Non volatile Load offseted
	lw 	s0,8(sp)	# Non volatile Load offseted
.LVL20:
.LM42:
	add	a0,a0,%lo(.LC7)
.LM43:
	add	sp,sp,16
.LM44:
	tail	puts
.LVL21:
.L16:
.LM45:
	lui	a0,%hi(.LC6)
.LM46:
	lw 	ra,12(sp)	# Non volatile Load offseted
	lw 	s0,8(sp)	# Non volatile Load offseted
.LVL22:
.LM47:
	add	a0,a0,%lo(.LC6)
.LM48:
	add	sp,sp,16
.LM49:
	tail	puts
.LVL23:
	.cfi_endproc
.LFE15:
	.size	print_summary, .-print_summary
	.section	.text.run_benchmark,"ax",@progbits
	.align	2
	.globl	run_benchmark
	.type	run_benchmark, @function
run_benchmark:
.LFB16:
.LM50:
	.cfi_startproc
.LVL24:
	add	sp,sp,-16
	.cfi_def_cfa_offset 16
	sw	s0,8(sp)
	sw	s1,4(sp)
	.cfi_offset 8, -8
	.cfi_offset 9, -12
	mv	s0,a1
	mv	s1,a0
.LM51:
	li	a1,0
.LVL25:
	li	a0,0
.LVL26:
.LM52:
	sw	ra,12(sp)
	.cfi_offset 1, -4
.LM53:
	call	set_gpio_pin_value
.LVL27:
.LM54:
	li	a1,1
	li	a0,0
	call	set_gpio_pin_direction
.LVL28:
.LM55:
	li	a1,1
	li	a0,0
	call	set_pin_function
.LVL29:
.LM56:
	sw	zero,4(s0)
.LBB6:
.LBB7:
.LM57:
	call	reset_timer
.LVL30:
.LBE7:
.LBE6:
.LM58:
	lui	a2,%hi(bench_timer_stop)
	lui	a1,%hi(bench_timer_start)
	mv	a0,s0
	lw 	a5,4(s1)	# Non volatile Load offseted
	add	a2,a2,%lo(bench_timer_stop)
	add	a1,a1,%lo(bench_timer_start)
	jalr	a5
.LVL31:
.LM59:
	call	get_time
.LVL32:
.LM60:
	lw 	ra,12(sp)	# Non volatile Load offseted
.LM61:
	sw	a0,0(s0)
.LM62:
	lw 	s1,4(sp)	# Non volatile Load offseted
.LVL33:
	lw 	s0,8(sp)	# Non volatile Load offseted
.LVL34:
	add	sp,sp,16
	jr	ra
	.cfi_endproc
.LFE16:
	.size	run_benchmark, .-run_benchmark
	.section	.text.run_suite,"ax",@progbits
	.align	2
	.globl	run_suite
	.type	run_suite, @function
run_suite:
.LFB17:
.LM63:
	.cfi_startproc
.LVL35:
.LM64:
	lw	a5,0(a0)
.LM65:
	add	sp,sp,-80
	.cfi_def_cfa_offset 80
	sw	ra,76(sp)
	sw	s0,72(sp)
	sw	s1,68(sp)
	sw	s2,64(sp)
	sw	s3,60(sp)
	sw	s4,56(sp)
	sw	s5,52(sp)
	sw	s6,48(sp)
	sw	s7,44(sp)
	sw	s8,40(sp)
	sw	s9,36(sp)
	sw	s10,32(sp)
	sw	s11,28(sp)
	.cfi_offset 1, -4
	.cfi_offset 8, -8
	.cfi_offset 9, -12
	.cfi_offset 18, -16
	.cfi_offset 19, -20
	.cfi_offset 20, -24
	.cfi_offset 21, -28
	.cfi_offset 22, -32
	.cfi_offset 23, -36
	.cfi_offset 24, -40
	.cfi_offset 25, -44
	.cfi_offset 26, -48
	.cfi_offset 27, -52
.LM66:
	beqz	a5,.L20
	add	a5,a0,8
	li	s3,0
.LVL36:
.L21:
.LM67:
	p.lw	a4,8(a5!)	# load post modify imm
	add	s3,s3,1
.LVL37:
	bnez	a4,.L21
.LVL38:
	add	s2,a0,4
	mv	s0,a0
.LM68:
	li	s1,0
	li	s4,0
	lui	s10,%hi(bench_timer_stop)
	lui	s9,%hi(bench_timer_start)
	lui	s8,%hi(.LC0)
	lui	s7,%hi(.LC3)
.LBB17:
.LBB18:
.LBB19:
.LM69:
	lui	s11,%hi(.LC2)
.LM70:
	lui	s6,%hi(.LC1)
.LM71:
	lui	s5,%hi(.LC4)
	j	.L26
.LVL39:
.L24:
.LM72:
	call	printf
.LVL40:
.LBE19:
.LBE18:
.LBE17:
.LM73:
	add	s1,s1,1
.LVL41:
.LBB30:
.LM74:
	lw 	a5,12(sp)	# Non volatile Load offseted
	add	s4,s4,a5
.LVL42:
	add	s2,s2,8
.LVL43:
	add	s0,s0,8
.LBE30:
.LM75:
	beq	s3,s1,.L35
.LVL44:
.L26:
.LBB31:
.LBB22:
.LBB23:
.LM76:
	li	a1,0
	li	a0,0
	call	set_gpio_pin_value
.LVL45:
.LM77:
	li	a1,1
	li	a0,0
	call	set_gpio_pin_direction
.LVL46:
.LM78:
	li	a1,1
	li	a0,0
	call	set_pin_function
.LVL47:
.LM79:
	sw	zero,12(sp)
.LBB24:
.LBB25:
.LM80:
	call	reset_timer
.LVL48:
.LBE25:
.LBE24:
.LM81:
	lw	a5,0(s2)
	add	a2,s10,%lo(bench_timer_stop)
	add	a1,s9,%lo(bench_timer_start)
	add	a0,sp,8
.LVL49:
	jalr	a5
.LVL50:
.LM82:
	call	get_time
.LVL51:
.LBE23:
.LBE22:
.LBB27:
.LBB20:
.LM83:
	lw	a1,0(s0)
.LBE20:
.LBE27:
.LBB28:
.LBB26:
.LM84:
	sw	a0,8(sp)
.LVL52:
.LBE26:
.LBE28:
.LBB29:
.LBB21:
.LM85:
	add	a0,s8,%lo(.LC0)
	call	printf
.LVL53:
.LM86:
	lw 	a5,12(sp)	# Non volatile Load offseted
.LM87:
	add	a0,s6,%lo(.LC1)
.LM88:
	beqz	a5,.L34
.LM89:
	add	a0,s11,%lo(.LC2)
.L34:
	call	printf
.LVL54:
.LM90:
	lw 	a1,12(sp)	# Non volatile Load offseted
	add	a0,s7,%lo(.LC3)
	call	printf
.LVL55:
.LM91:
	lw	a1,8(sp)
	add	a0,s5,%lo(.LC4)
.LM92:
	bnez	a1,.L24
.LM93:
	li	a0,10
	call	putchar
.LVL56:
.LBE21:
.LBE29:
.LBE31:
.LM94:
	add	s1,s1,1
.LVL57:
.LBB32:
.LM95:
	lw 	a5,12(sp)	# Non volatile Load offseted
	add	s4,s4,a5
.LVL58:
	add	s2,s2,8
.LVL59:
	add	s0,s0,8
.LBE32:
.LM96:
	bne	s3,s1,.L26
.LVL60:
.L35:
.LBB33:
.LBB34:
.LM97:
	lui	a0,%hi(.LC5)
	add	a0,a0,%lo(.LC5)
	call	printf
.LVL61:
.LM98:
	beqz	s4,.L29
.LM99:
	lui	a0,%hi(.LC7)
	add	a0,a0,%lo(.LC7)
	call	puts
.LVL62:
.L32:
.LBE34:
.LBE33:
.LM100:
	lw 	ra,76(sp)	# Non volatile Load offseted
	mv	a0,s4
	lw 	s0,72(sp)	# Non volatile Load offseted
	lw 	s1,68(sp)	# Non volatile Load offseted
	lw 	s2,64(sp)	# Non volatile Load offseted
	lw 	s3,60(sp)	# Non volatile Load offseted
	lw 	s4,56(sp)	# Non volatile Load offseted
	lw 	s5,52(sp)	# Non volatile Load offseted
	lw 	s6,48(sp)	# Non volatile Load offseted
	lw 	s7,44(sp)	# Non volatile Load offseted
	lw 	s8,40(sp)	# Non volatile Load offseted
	lw 	s9,36(sp)	# Non volatile Load offseted
	lw 	s10,32(sp)	# Non volatile Load offseted
	lw 	s11,28(sp)	# Non volatile Load offseted
	add	sp,sp,80
	jr	ra
.LVL63:
.L20:
.LBB36:
.LBB35:
.LM101:
	lui	a0,%hi(.LC5)
.LVL64:
	add	a0,a0,%lo(.LC5)
	call	printf
.LVL65:
.L29:
.LM102:
	lui	a0,%hi(.LC6)
	add	a0,a0,%lo(.LC6)
	call	puts
.LVL66:
	li	s4,0
	j	.L32
.LBE35:
.LBE36:
	.cfi_endproc
.LFE17:
	.size	run_suite, .-run_suite
	.section	.text.check_uint32,"ax",@progbits
	.align	2
	.globl	check_uint32
	.type	check_uint32, @function
check_uint32:
.LFB18:
.LM103:
	.cfi_startproc
.LVL67:
.LM104:
	beq	a2,a3,.L36
.LM105:
	lw 	a5,4(a0)	# Non volatile Load offseted
	add	a5,a5,1
	sw	a5,4(a0)
.LM106:
	lui	a0,%hi(.LC8)
.LVL68:
	add	a0,a0,%lo(.LC8)
	tail	printf
.LVL69:
.L36:
	ret
	.cfi_endproc
.LFE18:
	.size	check_uint32, .-check_uint32
	.section	.text.perf_print_all,"ax",@progbits
	.align	2
	.globl	perf_print_all
	.type	perf_print_all, @function
perf_print_all:
.LFB19:
.LM107:
	.cfi_startproc
	add	sp,sp,-16
	.cfi_def_cfa_offset 16
.LM108:
	li	a0,0
.LM109:
	sw	ra,12(sp)
	.cfi_offset 1, -4
.LM110:
	call	cpu_perf_get
.LVL70:
	mv	a1,a0
	lui	a0,%hi(.LC9)
	add	a0,a0,%lo(.LC9)
	call	printf
.LVL71:
.LM111:
	li	a0,1
	call	cpu_perf_get
.LVL72:
	mv	a1,a0
	lui	a0,%hi(.LC10)
	add	a0,a0,%lo(.LC10)
	call	printf
.LVL73:
.LM112:
	li	a0,10
	call	cpu_perf_get
.LVL74:
	mv	a1,a0
	lui	a0,%hi(.LC11)
	add	a0,a0,%lo(.LC11)
	call	printf
.LVL75:
.LM113:
	li	a0,2
	call	cpu_perf_get
.LVL76:
	mv	a1,a0
	lui	a0,%hi(.LC12)
	add	a0,a0,%lo(.LC12)
	call	printf
.LVL77:
.LM114:
	li	a0,3
	call	cpu_perf_get
.LVL78:
	mv	a1,a0
	lui	a0,%hi(.LC13)
	add	a0,a0,%lo(.LC13)
	call	printf
.LVL79:
.LM115:
	li	a0,4
	call	cpu_perf_get
.LVL80:
	mv	a1,a0
	lui	a0,%hi(.LC14)
	add	a0,a0,%lo(.LC14)
	call	printf
.LVL81:
.LM116:
	li	a0,5
	call	cpu_perf_get
.LVL82:
	mv	a1,a0
	lui	a0,%hi(.LC15)
	add	a0,a0,%lo(.LC15)
	call	printf
.LVL83:
.LM117:
	li	a0,6
	call	cpu_perf_get
.LVL84:
	mv	a1,a0
	lui	a0,%hi(.LC16)
	add	a0,a0,%lo(.LC16)
	call	printf
.LVL85:
.LM118:
	li	a0,7
	call	cpu_perf_get
.LVL86:
	mv	a1,a0
	lui	a0,%hi(.LC17)
	add	a0,a0,%lo(.LC17)
	call	printf
.LVL87:
.LM119:
	li	a0,8
	call	cpu_perf_get
.LVL88:
	mv	a1,a0
	lui	a0,%hi(.LC18)
	add	a0,a0,%lo(.LC18)
	call	printf
.LVL89:
.LM120:
	li	a0,9
	call	cpu_perf_get
.LVL90:
	mv	a1,a0
	lui	a0,%hi(.LC19)
	add	a0,a0,%lo(.LC19)
	call	printf
.LVL91:
.LM121:
	li	a0,10
	call	cpu_perf_get
.LVL92:
	mv	a1,a0
	lui	a0,%hi(.LC20)
.LM122:
	lw 	ra,12(sp)	# Non volatile Load offseted
.LM123:
	add	a0,a0,%lo(.LC20)
.LM124:
	add	sp,sp,16
.LM125:
	tail	printf
.LVL93:
	.cfi_endproc
.LFE19:
	.size	perf_print_all, .-perf_print_all
	.section	.text.illegal_insn_handler_c,"ax",@progbits
	.align	2
	.weak	illegal_insn_handler_c
	.type	illegal_insn_handler_c, @function
illegal_insn_handler_c:
.LFB20:
.LM126:
	.cfi_startproc
.LM127:
 #APP
# 140 "src/bench.c" 1
	csrr a1, 0x341
# 0 "" 2
.LVL94:
.LM128:
 #NO_APP
	lui	a0,%hi(.LC21)
	lw	a2,0(a1)
.LM129:
	add	sp,sp,-16
	.cfi_def_cfa_offset 16
.LM130:
	add	a0,a0,%lo(.LC21)
.LM131:
	sw	ra,12(sp)
.LVL95:
	.cfi_offset 1, -4
.LM132:
	call	printf
.LVL96:
.LM133:
	li	a0,1
	call	exit
.LVL97:
	.cfi_endproc
.LFE20:
	.size	illegal_insn_handler_c, .-illegal_insn_handler_c
	.section	.rodata.str1.4,"aMS",@progbits,1
	.align	2
.LC0:
	.string	"== test: %s -> "
.LC1:
	.string	"success, "
	.zero	2
.LC2:
	.string	"fail, "
	.zero	1
.LC3:
	.string	"nr. of errors: %d"
	.zero	2
.LC4:
	.string	", execution time: %d\n"
	.zero	2
.LC5:
	.string	"==== SUMMARY: "
	.zero	1
.LC6:
	.string	"SUCCESS"
.LC7:
	.string	"FAIL"
	.zero	3
.LC8:
	.string	"%s: Actual %X, expected %X\n"
.LC9:
	.string	"Perf CYCLES:   %d\n"
	.zero	1
.LC10:
	.string	"Perf INSN:     %d\n"
	.zero	1
.LC11:
	.string	"Perf CINSN:    %d\n"
	.zero	1
.LC12:
	.string	"Perf LD_STALL: %d\n"
	.zero	1
.LC13:
	.string	"Perf JR_STALL: %d\n"
	.zero	1
.LC14:
	.string	"Perf IMISS:    %d\n"
	.zero	1
.LC15:
	.string	"Perf #LD:      %d\n"
	.zero	1
.LC16:
	.string	"Perf #ST:      %d\n"
	.zero	1
.LC17:
	.string	"Perf #JUMP:    %d\n"
	.zero	1
.LC18:
	.string	"Perf #BRANCH:  %d\n"
	.zero	1
.LC19:
	.string	"Perf #TAKEN:   %d\n"
	.zero	1
.LC20:
	.string	"Perf #RVC:     %d\n"
	.zero	1
.LC21:
	.string	"Illegal instruction encountered at address 0x%08X: %X\n"
	.text
.Letext0: