	.file	"gpio.c"
	.text
.Ltext0:
	.section	.text.set_pin_function,"ax",@progbits
	.align	2
	.globl	set_pin_function
	.type	set_pin_function, @function
set_pin_function:
.LFB0:
.LM1:
	.cfi_startproc
.LVL0:
.LM2:
	li	a3,437284864
	lw	a5,0(a3)
.LM3:
	add	sp,sp,-16
	.cfi_def_cfa_offset 16
.LM4:
	sw	a5,12(sp)
.LM5:
	li	a5,1
	sll	a5,a5,a0
	lw 	a4,12(sp)	# Non volatile Load offseted
	not	a5,a5
	and	a5,a5,a4
	sw	a5,12(sp)
.LM6:
	lw 	a5,12(sp)	# Non volatile Load offseted
	sll	a1,a1,a0
.LVL1:
	or	a0,a1,a5
.LVL2:
	sw	a0,12(sp)
.LM7:
	lw 	a5,12(sp)	# Non volatile Load offseted
	sw	a5,0(a3)
.LM8:
	add	sp,sp,16
	jr	ra
	.cfi_endproc
.LFE0:
	.size	set_pin_function, .-set_pin_function
	.section	.text.get_pin_function,"ax",@progbits
	.align	2
	.globl	get_pin_function
	.type	get_pin_function, @function
get_pin_function:
.LFB1:
.LM9:
	.cfi_startproc
.LVL3:
.LM10:
	li	a5,437284864
	lw	a5,0(a5)
.LM11:
	add	sp,sp,-16
	.cfi_def_cfa_offset 16
.LM12:
	sw	a5,12(sp)
.LM13:
	lw 	a5,12(sp)	# Non volatile Load offseted
	sra	a0,a5,a0
.LVL4:
	p.bclr 	a0,a0,30,1 # Bit clear
	sw	a0,12(sp)
.LM14:
	lw 	a0,12(sp)	# Non volatile Load offseted
	add	sp,sp,16
	jr	ra
	.cfi_endproc
.LFE1:
	.size	get_pin_function, .-get_pin_function
	.section	.text.set_gpio_pin_direction,"ax",@progbits
	.align	2
	.globl	set_gpio_pin_direction
	.type	set_gpio_pin_direction, @function
set_gpio_pin_direction:
.LFB2:
.LM15:
	.cfi_startproc
.LVL5:
.LM16:
	li	a5,437260288
	lw	a5,0(a5)
.LM17:
	add	sp,sp,-16
	.cfi_def_cfa_offset 16
.LM18:
	sw	a5,12(sp)
.LM19:
	beqz	a1,.L10
.LM20:
	li	a4,1
	lw 	a5,12(sp)	# Non volatile Load offseted
	sll	a0,a4,a0
.LVL6:
	or	a0,a0,a5
	sw	a0,12(sp)
.LM21:
	lw 	a4,12(sp)	# Non volatile Load offseted
	li	a5,437260288
	sw	a4,0(a5)
.LM22:
	add	sp,sp,16
	jr	ra
.LVL7:
.L10:
.LM23:
	li	a5,1
	sll	a0,a5,a0
.LVL8:
	not	a0,a0
	lw 	a5,12(sp)	# Non volatile Load offseted
	and	a0,a0,a5
	sw	a0,12(sp)
.LM24:
	lw 	a4,12(sp)	# Non volatile Load offseted
	li	a5,437260288
	sw	a4,0(a5)
.LM25:
	add	sp,sp,16
	jr	ra
	.cfi_endproc
.LFE2:
	.size	set_gpio_pin_direction, .-set_gpio_pin_direction
	.section	.text.get_gpio_pin_direction,"ax",@progbits
	.align	2
	.globl	get_gpio_pin_direction
	.type	get_gpio_pin_direction, @function
get_gpio_pin_direction:
.LFB3:
.LM26:
	.cfi_startproc
.LVL9:
.LM27:
	li	a5,437260288
	lw	a5,0(a5)
.LM28:
	add	sp,sp,-16
	.cfi_def_cfa_offset 16
.LM29:
	sw	a5,12(sp)
.LM30:
	lw 	a5,12(sp)	# Non volatile Load offseted
	sll	a0,a0,1
.LVL10:
	sra	a0,a5,a0
	p.bclr 	a0,a0,30,1 # Bit clear
	sw	a0,12(sp)
.LM31:
	lw 	a0,12(sp)	# Non volatile Load offseted
	add	sp,sp,16
	jr	ra
	.cfi_endproc
.LFE3:
	.size	get_gpio_pin_direction, .-get_gpio_pin_direction
	.section	.text.set_gpio_pin_value,"ax",@progbits
	.align	2
	.globl	set_gpio_pin_value
	.type	set_gpio_pin_value, @function
set_gpio_pin_value:
.LFB4:
.LM32:
	.cfi_startproc
.LVL11:
.LM33:
	li	a5,437260288
.LM34:
	add	sp,sp,-16
	.cfi_def_cfa_offset 16
.LM35:
	lw 	a5,8(a5)	# Non volatile Load offseted
	sw	a5,12(sp)
.LM36:
	beqz	a1,.L17
.LM37:
	li	a4,1
	lw 	a5,12(sp)	# Non volatile Load offseted
	sll	a0,a4,a0
.LVL12:
	or	a0,a0,a5
	sw	a0,12(sp)
.LM38:
	lw 	a4,12(sp)	# Non volatile Load offseted
	li	a5,437260288
	sw	a4,8(a5)
.LM39:
	add	sp,sp,16
	jr	ra
.LVL13:
.L17:
.LM40:
	li	a5,1
	sll	a0,a5,a0
.LVL14:
	not	a0,a0
	lw 	a5,12(sp)	# Non volatile Load offseted
	and	a0,a0,a5
	sw	a0,12(sp)
.LM41:
	lw 	a4,12(sp)	# Non volatile Load offseted
	li	a5,437260288
	sw	a4,8(a5)
.LM42:
	add	sp,sp,16
	jr	ra
	.cfi_endproc
.LFE4:
	.size	set_gpio_pin_value, .-set_gpio_pin_value
	.section	.text.get_gpio_pin_value,"ax",@progbits
	.align	2
	.globl	get_gpio_pin_value
	.type	get_gpio_pin_value, @function
get_gpio_pin_value:
.LFB5:
.LM43:
	.cfi_startproc
.LVL15:
.LM44:
	li	a5,437260288
.LM45:
	add	sp,sp,-16
	.cfi_def_cfa_offset 16
.LM46:
	lw 	a5,4(a5)	# Non volatile Load offseted
	sw	a5,12(sp)
.LM47:
	lw 	a5,12(sp)	# Non volatile Load offseted
	sra	a0,a5,a0
.LVL16:
	p.bclr 	a0,a0,30,1 # Bit clear
	sw	a0,12(sp)
.LM48:
	lw 	a0,12(sp)	# Non volatile Load offseted
	add	sp,sp,16
	jr	ra
	.cfi_endproc
.LFE5:
	.size	get_gpio_pin_value, .-get_gpio_pin_value
	.section	.text.set_gpio_pin_irq_en,"ax",@progbits
	.align	2
	.globl	set_gpio_pin_irq_en
	.type	set_gpio_pin_irq_en, @function
set_gpio_pin_irq_en:
.LFB6:
.LM49:
	.cfi_startproc
.LVL17:
.LM50:
	li	a5,437260288
.LM51:
	li	a4,1
.LM52:
	lw 	a5,12(a5)	# Non volatile Load offseted
.LVL18:
.LM53:
	sll	a0,a4,a0
.LVL19:
.LM54:
	beqz	a1,.L23
.LM55:
	or	a5,a0,a5
.LVL20:
.LM56:
	li	a4,437260288
	sw	a5,12(a4)
	ret
.L23:
.LM57:
	not	a0,a0
	and	a5,a0,a5
.LVL21:
.LM58:
	li	a4,437260288
	sw	a5,12(a4)
	ret
	.cfi_endproc
.LFE6:
	.size	set_gpio_pin_irq_en, .-set_gpio_pin_irq_en
	.section	.text.set_gpio_pin_irq_type,"ax",@progbits
	.align	2
	.globl	set_gpio_pin_irq_type
	.type	set_gpio_pin_irq_type, @function
set_gpio_pin_irq_type:
.LFB7:
.LM59:
	.cfi_startproc
.LVL22:
.LM60:
	li	a5,437260288
.LM61:
	p.bclr 	a3,a1,30,1 # Bit clear
.LM62:
	lw 	a4,16(a5)	# Non volatile Load offseted
.LVL23:
.LM63:
	lw 	a5,20(a5)	# Non volatile Load offseted
.LVL24:
.LM64:
	bnez	a3,.L25
.LM65:
	li	a3,1
	sll	a0,a3,a0
.LVL25:
	not	a3,a0
	and	a4,a3,a4
.LVL26:
.L26:
.LM66:
	and	a1,a1,2
.LVL27:
.LM67:
	or	a3,a5,a0
.LM68:
	bnez	a1,.L28
.LM69:
	not	a0,a0
	and	a3,a0,a5
.LVL28:
.L28:
.LM70:
	li	a5,437260288
	add	a2,a5,16
.LM71:
	add	a5,a5,20
.LM72:
	sw	a4,0(a2)
.LM73:
	sw	a3,0(a5)
	ret
.LVL29:
.L25:
.LM74:
	li	a3,1
	sll	a0,a3,a0
.LVL30:
	or	a4,a4,a0
.LVL31:
	j	.L26
	.cfi_endproc
.LFE7:
	.size	set_gpio_pin_irq_type, .-set_gpio_pin_irq_type
	.section	.text.get_gpio_irq_status,"ax",@progbits
	.align	2
	.globl	get_gpio_irq_status
	.type	get_gpio_irq_status, @function
get_gpio_irq_status:
.LFB8:
.LM75:
	.cfi_startproc
.LM76:
	li	a0,437260288
.LM77:
	lw 	a0,24(a0)	# Non volatile Load offseted
	ret
	.cfi_endproc
.LFE8:
	.size	get_gpio_irq_status, .-get_gpio_irq_status
	.text
.Letext0: