	.file	"spi.c"
	.text
.Ltext0:
	.section	.text.spi_setup_slave,"ax",@progbits
	.align	2
	.globl	spi_setup_slave
	.type	spi_setup_slave, @function
spi_setup_slave:
.LFB0:
.LM1:
	.cfi_startproc
	add	sp,sp,-16
	.cfi_def_cfa_offset 16
.LM2:
	li	a1,0
	li	a0,4
.LM3:
	sw	ra,12(sp)
	.cfi_offset 1, -4
.LM4:
	call	set_pin_function
.LVL0:
.LM5:
	li	a1,0
	li	a0,5
	call	set_pin_function
.LVL1:
.LM6:
	li	a1,0
	li	a0,6
	call	set_pin_function
.LVL2:
.LM7:
	li	a1,0
	li	a0,7
	call	set_pin_function
.LVL3:
.LM8:
	lw 	ra,12(sp)	# Non volatile Load offseted
.LM9:
	li	a1,0
	li	a0,3
.LM10:
	add	sp,sp,16
.LM11:
	tail	set_pin_function
.LVL4:
	.cfi_endproc
.LFE0:
	.size	spi_setup_slave, .-spi_setup_slave
	.section	.text.spi_setup_master,"ax",@progbits
	.align	2
	.globl	spi_setup_master
	.type	spi_setup_master, @function
spi_setup_master:
.LFB1:
.LM12:
	.cfi_startproc
.LVL5:
	add	sp,sp,-16
	.cfi_def_cfa_offset 16
	sw	s0,8(sp)
.LM13:
	li	a1,0
	.cfi_offset 8, -8
.LM14:
	mv	s0,a0
.LM15:
	li	a0,15
.LVL6:
.LM16:
	sw	ra,12(sp)
	.cfi_offset 1, -4
.LM17:
	call	set_pin_function
.LVL7:
.LM18:
	li	a1,0
	li	a0,14
	call	set_pin_function
.LVL8:
.LM19:
	li	a1,0
	li	a0,13
	call	set_pin_function
.LVL9:
.LM20:
	li	a1,0
	li	a0,12
	call	set_pin_function
.LVL10:
.LM21:
	blez	s0,.L3
.LM22:
	li	a1,0
	li	a0,16
	call	set_pin_function
.LVL11:
.LM23:
	p.beqimm	s0,1,.L3
.LM24:
	li	a1,0
	li	a0,11
	call	set_pin_function
.LVL12:
.LM25:
	p.beqimm	s0,2,.L3
.LM26:
	li	a1,0
	li	a0,0
	call	set_pin_function
.LVL13:
.LM27:
	p.beqimm	s0,3,.L3
.LM28:
	lw 	ra,12(sp)	# Non volatile Load offseted
	lw 	s0,8(sp)	# Non volatile Load offseted
.LVL14:
.LM29:
	li	a1,0
	li	a0,1
.LM30:
	add	sp,sp,16
.LM31:
	tail	set_pin_function
.LVL15:
.L3:
.LM32:
	lw 	ra,12(sp)	# Non volatile Load offseted
	lw 	s0,8(sp)	# Non volatile Load offseted
.LVL16:
	add	sp,sp,16
	jr	ra
	.cfi_endproc
.LFE1:
	.size	spi_setup_master, .-spi_setup_master
	.section	.text.spi_setup_cmd_addr,"ax",@progbits
	.align	2
	.globl	spi_setup_cmd_addr
	.type	spi_setup_cmd_addr, @function
spi_setup_cmd_addr:
.LFB2:
.LM33:
	.cfi_startproc
.LVL17:
.LM34:
	li	a6,16384
	add	a6,a6,-256
	sll	a3,a3,8
.LVL18:
.LM35:
	li	a4,32
.LM36:
	li	a5,437264384
.LM37:
	sub	a4,a4,a1
.LM38:
	and	a3,a3,a6
	p.bclr 	a1,a1,25,6 # Bit clear
.LVL19:
.LM39:
	sll	a0,a0,a4
.LVL20:
.LM40:
	add	a6,a5,8
.LM41:
	add	a4,a5,12
.LM42:
	or	a1,a3,a1
	add	a5,a5,16
.LM43:
	sw	a0,0(a6)
.LM44:
	sw	a2,0(a4)
.LM45:
	sw	a1,0(a5)
	ret
	.cfi_endproc
.LFE2:
	.size	spi_setup_cmd_addr, .-spi_setup_cmd_addr
	.section	.text.spi_setup_dummy,"ax",@progbits
	.align	2
	.globl	spi_setup_dummy
	.type	spi_setup_dummy, @function
spi_setup_dummy:
.LFB3:
.LM46:
	.cfi_startproc
.LVL21:
.LM47:
	sll	a1,a1,16
.LVL22:
	p.exthz	a0,a0
.LVL23:
	or	a1,a1,a0
	li	a5,437264384
	sw	a1,20(a5)
	ret
	.cfi_endproc
.LFE3:
	.size	spi_setup_dummy, .-spi_setup_dummy
	.section	.text.spi_set_datalen,"ax",@progbits
	.align	2
	.globl	spi_set_datalen
	.type	spi_set_datalen, @function
spi_set_datalen:
.LFB4:
.LM48:
	.cfi_startproc
.LVL24:
.LM49:
	li	a4,437264384
	add	a4,a4,16
	lw	a5,0(a4)
.LM50:
	add	sp,sp,-16
	.cfi_def_cfa_offset 16
.LM51:
	sw	a5,12(sp)
.LM52:
	lw 	a5,12(sp)	# Non volatile Load offseted
	p.exthz	a5,a5
	sll	a0,a0,16
.LVL25:
	or	a0,a0,a5
	sw	a0,12(sp)
.LM53:
	lw 	a5,12(sp)	# Non volatile Load offseted
	sw	a5,0(a4)
.LM54:
	add	sp,sp,16
	jr	ra
	.cfi_endproc
.LFE4:
	.size	spi_set_datalen, .-spi_set_datalen
	.section	.text.spi_start_transaction,"ax",@progbits
	.align	2
	.globl	spi_start_transaction
	.type	spi_start_transaction, @function
spi_start_transaction:
.LFB5:
.LM55:
	.cfi_startproc
.LVL26:
.LM56:
	li	a5,1
	add	a1,a1,8
.LVL27:
	sll	a1,a5,a1
.LVL28:
	sll	a0,a5,a0
.LVL29:
	li	a5,4096
	add	a5,a5,-256
	and	a1,a1,a5
	p.bclr 	a0,a0,23,8 # Bit clear
	or	a0,a1,a0
	li	a5,437264384
	sw	a0,0(a5)
	ret
	.cfi_endproc
.LFE5:
	.size	spi_start_transaction, .-spi_start_transaction
	.section	.text.spi_get_status,"ax",@progbits
	.align	2
	.globl	spi_get_status
	.type	spi_get_status, @function
spi_get_status:
.LFB6:
.LM57:
	.cfi_startproc
.LM58:
	li	a5,437264384
	lw	a5,0(a5)
.LM59:
	add	sp,sp,-16
	.cfi_def_cfa_offset 16
.LM60:
	sw	a5,12(sp)
.LM61:
	lw 	a0,12(sp)	# Non volatile Load offseted
	add	sp,sp,16
	jr	ra
	.cfi_endproc
.LFE6:
	.size	spi_get_status, .-spi_get_status
	.section	.text.spi_write_fifo,"ax",@progbits
	.align	2
	.globl	spi_write_fifo
	.type	spi_write_fifo, @function
spi_write_fifo:
.LFB7:
.LM62:
	.cfi_startproc
.LVL30:
.LM63:
	p.extractu 	a5,a1,10,5 # Bit extract signed
.LM64:
	add	sp,sp,-16
	.cfi_def_cfa_offset 16
.LM65:
	p.bclr 	a1,a1,26,5 # Bit clear
.LVL31:
.LM66:
	sw	a5,8(sp)
.LM67:
	beqz	a1,.L27
.LM68:
	lw 	a5,8(sp)	# Non volatile Load offseted
	add	a5,a5,1
	sw	a5,8(sp)
.L27:
.LM69:
	sw	zero,12(sp)
	lw 	a2,12(sp)	# Non volatile Load offseted
.LM70:
	li	a4,437264384
.LM71:
	lw 	a5,8(sp)	# Non volatile Load offseted
.LM72:
	li	a3,7
.LM73:
	add	a1,a4,24
.LM74:
	bge	a2,a5,.L26
.L29:
.LM75:
	lw	a5,0(a4)
	srl	a5,a5,24
	bgtu	a5,a3,.L29
.LM76:
	lw 	a5,12(sp)	# Non volatile Load offseted
	sll	a5,a5,2
	p.lw	a5,a5(a0)	# load reg(reg)
	sw	a5,0(a1)
.LM77:
	lw 	a5,12(sp)	# Non volatile Load offseted
	add	a5,a5,1
	sw	a5,12(sp)
	lw 	a2,12(sp)	# Non volatile Load offseted
	lw 	a5,8(sp)	# Non volatile Load offseted
	blt	a2,a5,.L29
.L26:
.LM78:
	add	sp,sp,16
	jr	ra
	.cfi_endproc
.LFE7:
	.size	spi_write_fifo, .-spi_write_fifo
	.section	.text.spi_read_fifo,"ax",@progbits
	.align	2
	.globl	spi_read_fifo
	.type	spi_read_fifo, @function
spi_read_fifo:
.LFB8:
.LM79:
	.cfi_startproc
.LVL32:
.LM80:
	p.extractu 	a5,a1,10,5 # Bit extract signed
.LM81:
	add	sp,sp,-16
	.cfi_def_cfa_offset 16
.LM82:
	p.bclr 	a1,a1,26,5 # Bit clear
.LVL33:
.LM83:
	sw	a5,8(sp)
.LM84:
	beqz	a1,.L39
.LM85:
	lw 	a5,8(sp)	# Non volatile Load offseted
	add	a5,a5,1
	sw	a5,8(sp)
.L39:
.LM86:
	sw	zero,12(sp)
	lw 	a3,12(sp)	# Non volatile Load offseted
.LM87:
	li	a4,437264384
.LM88:
	lw 	a5,8(sp)	# Non volatile Load offseted
.LM89:
	add	a6,a4,32
.LM90:
	bge	a3,a5,.L38
.L41:
.LM91:
	lw	a5,0(a4)
	p.extractu 	a5,a5,7,16 # Bit extract signed
	beqz	a5,.L41
.LM92:
	lw 	a5,12(sp)	# Non volatile Load offseted
	lw	a1,0(a6)
.LM93:
	lw 	a3,12(sp)	# Non volatile Load offseted
	add	a3,a3,1
	sw	a3,12(sp)
.LM94:
	add	a2,sp,16
	sll	a5,a5,2
.LM95:
	lw 	a2,-4(a2)	# Non volatile Load offseted
	lw 	a3,8(sp)	# Non volatile Load offseted
.LM96:
	p.sw	a1,a5(a0)	# store reg(reg)
.LM97:
	blt	a2,a3,.L41
.L38:
.LM98:
	add	sp,sp,16
	jr	ra
	.cfi_endproc
.LFE8:
	.size	spi_read_fifo, .-spi_read_fifo
	.text
.Letext0: