	.file	"utils.c"
	.text
.Ltext0:
	.section	.text.eoc,"ax",@progbits
	.align	2
	.globl	eoc
	.type	eoc, @function
eoc:
.LFB4:
.LM1:
	.cfi_startproc
.LVL0:
	add	sp,sp,-16
	.cfi_def_cfa_offset 16
	sw	ra,12(sp)
	.cfi_offset 1, -4
.LM2:
	bnez	a0,.L6
.LM3:
	li	a5,437284864
	sw	zero,20(a5)
.L3:
.LM4:
	li	a5,437284864
	add	a5,a5,4
	lw	a4,0(a5)
.LM5:
	li	a1,1
.LM6:
	p.bset 	a4,a4,0,2 # Bit set
.LM7:
	li	a0,8
.LVL1:
.LM8:
	sw	a4,0(a5)
.LM9:
	call	set_pin_function
.LVL2:
.LM10:
	li	a1,1
	li	a0,8
	call	set_gpio_pin_direction
.LVL3:
.LM11:
	lw 	ra,12(sp)	# Non volatile Load offseted
.LM12:
	li	a1,1
	li	a0,8
.LM13:
	add	sp,sp,16
.LM14:
	tail	set_gpio_pin_value
.LVL4:
.L6:
.LM15:
	li	a4,1
	li	a5,437284864
	sw	a4,20(a5)
	j	.L3
	.cfi_endproc
.LFE4:
	.size	eoc, .-eoc
	.section	.text.exit,"ax",@progbits
	.align	2
	.globl	exit
	.type	exit, @function
exit:
.LFB3:
.LM16:
	.cfi_startproc
.LVL5:
	add	sp,sp,-16
	.cfi_def_cfa_offset 16
	sw	ra,12(sp)
	.cfi_offset 1, -4
.LM17:
	call	eoc
.LVL6:
.L8:
	j	.L8
	.cfi_endproc
.LFE3:
	.size	exit, .-exit
	.section	.text.sleep_busy,"ax",@progbits
	.align	2
	.globl	sleep_busy
	.type	sleep_busy, @function
sleep_busy:
.LFB5:
.LM18:
	.cfi_startproc
.LVL7:
	add	sp,sp,-16
	.cfi_def_cfa_offset 16
.LM19:
	sw	a0,12(sp)
.LBB2:
.LM20:
	lw 	a5,12(sp)	# Non volatile Load offseted
	blez	a5,.L10
.LM21:
	li	a5,0
.LVL8:
.L12:
.LM22:
 #APP
# 44 "src/utils.c" 1
	nop
# 0 "" 2
.LM23:
 #NO_APP
	add	a5,a5,1
.LVL9:
	lw 	a4,12(sp)	# Non volatile Load offseted
	bgt	a4,a5,.L12
.LVL10:
.L10:
.LBE2:
.LM24:
	add	sp,sp,16
	jr	ra
	.cfi_endproc
.LFE5:
	.size	sleep_busy, .-sleep_busy
	.section	.text.cpu_perf_set,"ax",@progbits
	.align	2
	.globl	cpu_perf_set
	.type	cpu_perf_set, @function
cpu_perf_set:
.LFB6:
.LM25:
	.cfi_startproc
.LVL11:
.LM26:
	lui	a0,%hi(.LC0)
.LVL12:
	add	a0,a0,%lo(.LC0)
	tail	puts
.LVL13:
	.cfi_endproc
.LFE6:
	.size	cpu_perf_set, .-cpu_perf_set
	.section	.text.cpu_perf_get,"ax",@progbits
	.align	2
	.globl	cpu_perf_get
	.type	cpu_perf_get, @function
cpu_perf_get:
.LFB7:
.LM27:
	.cfi_startproc
.LVL14:
.LM28:
	li	a5,15
	bgtu	a0,a5,.L17
	lui	a5,%hi(.L19)
	sll	a0,a0,2
.LVL15:
	add	a5,a5,%lo(.L19)
	p.lw	a0,a0(a5)	# load reg(reg)
	jr	a0
	.section	.rodata.cpu_perf_get,"a",@progbits
	.align	2
	.align	2
.L19:
	.word	.L18
	.word	.L20
	.word	.L21
	.word	.L22
	.word	.L23
	.word	.L24
	.word	.L25
	.word	.L26
	.word	.L27
	.word	.L28
	.word	.L29
	.word	.L30
	.word	.L31
	.word	.L32
	.word	.L33
	.word	.L34
	.section	.text.cpu_perf_get
.L33:
.LM29:
 #APP
# 71 "src/utils.c" 1
	csrr a0, 0x78E
# 0 "" 2
.LVL16:
 #NO_APP
	ret
.LVL17:
.L34:
.LM30:
 #APP
# 72 "src/utils.c" 1
	csrr a0, 0x78F
# 0 "" 2
.LVL18:
 #NO_APP
	ret
.LVL19:
.L18:
.LM31:
 #APP
# 57 "src/utils.c" 1
	csrr a0, 0x780
# 0 "" 2
.LVL20:
.LM32:
 #NO_APP
	ret
.LVL21:
.L20:
.LM33:
 #APP
# 58 "src/utils.c" 1
	csrr a0, 0x781
# 0 "" 2
.LVL22:
 #NO_APP
	ret
.LVL23:
.L21:
.LM34:
 #APP
# 59 "src/utils.c" 1
	csrr a0, 0x782
# 0 "" 2
.LVL24:
 #NO_APP
	ret
.LVL25:
.L22:
.LM35:
 #APP
# 60 "src/utils.c" 1
	csrr a0, 0x783
# 0 "" 2
.LVL26:
 #NO_APP
	ret
.LVL27:
.L23:
.LM36:
 #APP
# 61 "src/utils.c" 1
	csrr a0, 0x784
# 0 "" 2
.LVL28:
 #NO_APP
	ret
.LVL29:
.L24:
.LM37:
 #APP
# 62 "src/utils.c" 1
	csrr a0, 0x785
# 0 "" 2
.LVL30:
 #NO_APP
	ret
.LVL31:
.L25:
.LM38:
 #APP
# 63 "src/utils.c" 1
	csrr a0, 0x786
# 0 "" 2
.LVL32:
 #NO_APP
	ret
.LVL33:
.L26:
.LM39:
 #APP
# 64 "src/utils.c" 1
	csrr a0, 0x787
# 0 "" 2
.LVL34:
 #NO_APP
	ret
.LVL35:
.L27:
.LM40:
 #APP
# 65 "src/utils.c" 1
	csrr a0, 0x788
# 0 "" 2
.LVL36:
 #NO_APP
	ret
.LVL37:
.L28:
.LM41:
 #APP
# 66 "src/utils.c" 1
	csrr a0, 0x789
# 0 "" 2
.LVL38:
 #NO_APP
	ret
.LVL39:
.L29:
.LM42:
 #APP
# 67 "src/utils.c" 1
	csrr a0, 0x78A
# 0 "" 2
.LVL40:
 #NO_APP
	ret
.LVL41:
.L30:
.LM43:
 #APP
# 68 "src/utils.c" 1
	csrr a0, 0x78B
# 0 "" 2
.LVL42:
 #NO_APP
	ret
.LVL43:
.L31:
.LM44:
 #APP
# 69 "src/utils.c" 1
	csrr a0, 0x78C
# 0 "" 2
.LVL44:
 #NO_APP
	ret
.LVL45:
.L32:
.LM45:
 #APP
# 70 "src/utils.c" 1
	csrr a0, 0x78D
# 0 "" 2
.LVL46:
 #NO_APP
	ret
.LVL47:
.L17:
	mv	a1,a0
.LM46:
	lui	a0,%hi(.LC1)
.LVL48:
.LM47:
	add	sp,sp,-16
	.cfi_def_cfa_offset 16
.LM48:
	add	a0,a0,%lo(.LC1)
.LM49:
	sw	ra,12(sp)
	.cfi_offset 1, -4
.LM50:
	call	printf
.LVL49:
.LM51:
	lw 	ra,12(sp)	# Non volatile Load offseted
.LM52:
	li	a0,0
.LVL50:
.LM53:
	add	sp,sp,16
	jr	ra
	.cfi_endproc
.LFE7:
	.size	cpu_perf_get, .-cpu_perf_get
	.section	.rodata.str1.4,"aMS",@progbits,1
	.align	2
.LC0:
	.string	"cpu_perf_set: not implemented yet"
	.zero	2
.LC1:
	.string	"CSR %d not yet supported\n"
	.text
.Letext0: